target datalayout = "e-m:e-p270:32:32-p271:32:32-p272:64:64-i64:64-i128:128-f80:128-n8:16:32:64-S128"
target triple = "x86_64-pc-linux-gnu"

%"class.std::__cxx11::basic_string" = type { %"struct.std::__cxx11::basic_string<char>::_Alloc_hider", i64, %union.anon }
%"struct.std::__cxx11::basic_string<char>::_Alloc_hider" = type { ptr }
%union.anon = type { i64, [8 x i8] }
%"struct.rocksdb::MutableDBOptions" = type { i32, i32, i32, i8, i64, i64, i64, i64, i32, i32, i64, i32, i64, i64, i8, i64, i32, %"class.std::__cxx11::basic_string" }

@.str.211 = private unnamed_addr constant [44 x i8] c"            Options.max_background_jobs: %d\00", align 1
@.str.212 = private unnamed_addr constant [51 x i8] c"            Options.max_background_compactions: %d\00", align 1
@.str.213 = private unnamed_addr constant [43 x i8] c"            Options.max_subcompactions: %u\00", align 1
@.str.214 = private unnamed_addr constant [52 x i8] c"            Options.avoid_flush_during_shutdown: %d\00", align 1
@.str.215 = private unnamed_addr constant [53 x i8] c"          Options.writable_file_max_buffer_size: %zu\00", align 1
@.str.216 = private unnamed_addr constant [45 x i8] c"            Options.delayed_write_rate : %lu\00", align 1
@.str.217 = private unnamed_addr constant [44 x i8] c"            Options.max_total_wal_size: %lu\00", align 1
@.str.218 = private unnamed_addr constant [61 x i8] c"            Options.delete_obsolete_files_period_micros: %lu\00", align 1
@.str.219 = private unnamed_addr constant [52 x i8] c"                  Options.stats_dump_period_sec: %u\00", align 1
@.str.220 = private unnamed_addr constant [53 x i8] c"                Options.stats_persist_period_sec: %d\00", align 1
@.str.221 = private unnamed_addr constant [55 x i8] c"                Options.stats_history_buffer_size: %zu\00", align 1
@.str.222 = private unnamed_addr constant [52 x i8] c"                         Options.max_open_files: %d\00", align 1
@.str.223 = private unnamed_addr constant [53 x i8] c"                         Options.bytes_per_sync: %lu\00", align 1
@.str.224 = private unnamed_addr constant [53 x i8] c"                     Options.wal_bytes_per_sync: %lu\00", align 1
@.str.225 = private unnamed_addr constant [52 x i8] c"                  Options.strict_bytes_per_sync: %d\00", align 1
@.str.226 = private unnamed_addr constant [45 x i8] c"      Options.compaction_readahead_size: %zu\00", align 1
@.str.227 = private unnamed_addr constant [52 x i8] c"                 Options.max_background_flushes: %d\00", align 1
@.str.228 = private unnamed_addr constant [35 x i8] c"Options.daily_offpeak_time_utc: %s\00", align 1

; Function Attrs: mustprogress nounwind uwtable
define available_externally noundef ptr @_ZNKSt7__cxx1112basic_stringIcSt11char_traitsIcESaIcEE7_M_dataEv(ptr noundef nonnull align 8 dereferenceable(32) %0) #2 align 2 {
  %2 = alloca ptr, align 8
  store ptr %0, ptr %2, align 8, !tbaa !9
  %3 = load ptr, ptr %2, align 8
  %4 = getelementptr inbounds nuw %"class.std::__cxx11::basic_string", ptr %3, i32 0, i32 0
  %5 = getelementptr inbounds nuw %"struct.std::__cxx11::basic_string<char>::_Alloc_hider", ptr %4, i32 0, i32 0
  %6 = load ptr, ptr %5, align 8, !tbaa !635
  ret ptr %6
}

; Function Attrs: mustprogress nounwind uwtable
define available_externally noundef ptr @_ZNKSt7__cxx1112basic_stringIcSt11char_traitsIcESaIcEE5c_strEv(ptr noundef nonnull align 8 dereferenceable(32) %0) #2 align 2 {
  %2 = alloca ptr, align 8
  store ptr %0, ptr %2, align 8, !tbaa !9
  %3 = load ptr, ptr %2, align 8
  %4 = call noundef ptr @_ZNKSt7__cxx1112basic_stringIcSt11char_traitsIcESaIcEE7_M_dataEv(ptr noundef nonnull align 8 dereferenceable(32) %3)
  ret ptr %4
}

; Function Attrs: mustprogress uwtable
define void @_ZNK7rocksdb16MutableDBOptions4DumpEPNS_6LoggerE(ptr noundef nonnull align 8 dereferenceable(144) %0, ptr noundef %1) #3 align 2 {
  %3 = alloca ptr, align 8
  %4 = alloca ptr, align 8
  store ptr %0, ptr %3, align 8, !tbaa !141
  store ptr %1, ptr %4, align 8, !tbaa !417
  %5 = load ptr, ptr %3, align 8
  %6 = load ptr, ptr %4, align 8, !tbaa !417
  %7 = getelementptr inbounds nuw %"struct.rocksdb::MutableDBOptions", ptr %5, i32 0, i32 0
  %8 = load i32, ptr %7, align 8, !tbaa !440
  call void (i8, ptr, ptr, ...) @_ZN7rocksdb3LogENS_12InfoLogLevelEPNS_6LoggerEPKcz(i8 noundef zeroext 5, ptr noundef %6, ptr noundef @.str.211, i32 noundef %8)
  %9 = load ptr, ptr %4, align 8, !tbaa !417
  %10 = getelementptr inbounds nuw %"struct.rocksdb::MutableDBOptions", ptr %5, i32 0, i32 1
  %11 = load i32, ptr %10, align 4, !tbaa !441
  call void (i8, ptr, ptr, ...) @_ZN7rocksdb3LogENS_12InfoLogLevelEPNS_6LoggerEPKcz(i8 noundef zeroext 5, ptr noundef %9, ptr noundef @.str.212, i32 noundef %11)
  %12 = load ptr, ptr %4, align 8, !tbaa !417
  %13 = getelementptr inbounds nuw %"struct.rocksdb::MutableDBOptions", ptr %5, i32 0, i32 2
  %14 = load i32, ptr %13, align 8, !tbaa !442
  call void (i8, ptr, ptr, ...) @_ZN7rocksdb3LogENS_12InfoLogLevelEPNS_6LoggerEPKcz(i8 noundef zeroext 5, ptr noundef %12, ptr noundef @.str.213, i32 noundef %14)
  %15 = load ptr, ptr %4, align 8, !tbaa !417
  %16 = getelementptr inbounds nuw %"struct.rocksdb::MutableDBOptions", ptr %5, i32 0, i32 3
  %17 = load i8, ptr %16, align 4, !tbaa !443, !range !218, !noundef !219
  %18 = trunc i8 %17 to i1
  %19 = zext i1 %18 to i32
  call void (i8, ptr, ptr, ...) @_ZN7rocksdb3LogENS_12InfoLogLevelEPNS_6LoggerEPKcz(i8 noundef zeroext 5, ptr noundef %15, ptr noundef @.str.214, i32 noundef %19)
  %20 = load ptr, ptr %4, align 8, !tbaa !417
  %21 = getelementptr inbounds nuw %"struct.rocksdb::MutableDBOptions", ptr %5, i32 0, i32 4
  %22 = load i64, ptr %21, align 8, !tbaa !444
  call void (i8, ptr, ptr, ...) @_ZN7rocksdb3LogENS_12InfoLogLevelEPNS_6LoggerEPKcz(i8 noundef zeroext 5, ptr noundef %20, ptr noundef @.str.215, i64 noundef %22)
  %23 = load ptr, ptr %4, align 8, !tbaa !417
  %24 = getelementptr inbounds nuw %"struct.rocksdb::MutableDBOptions", ptr %5, i32 0, i32 5
  %25 = load i64, ptr %24, align 8, !tbaa !445
  call void (i8, ptr, ptr, ...) @_ZN7rocksdb3LogENS_12InfoLogLevelEPNS_6LoggerEPKcz(i8 noundef zeroext 5, ptr noundef %23, ptr noundef @.str.216, i64 noundef %25)
  %26 = load ptr, ptr %4, align 8, !tbaa !417
  %27 = getelementptr inbounds nuw %"struct.rocksdb::MutableDBOptions", ptr %5, i32 0, i32 6
  %28 = load i64, ptr %27, align 8, !tbaa !446
  call void (i8, ptr, ptr, ...) @_ZN7rocksdb3LogENS_12InfoLogLevelEPNS_6LoggerEPKcz(i8 noundef zeroext 5, ptr noundef %26, ptr noundef @.str.217, i64 noundef %28)
  %29 = load ptr, ptr %4, align 8, !tbaa !417
  %30 = getelementptr inbounds nuw %"struct.rocksdb::MutableDBOptions", ptr %5, i32 0, i32 7
  %31 = load i64, ptr %30, align 8, !tbaa !447
  call void (i8, ptr, ptr, ...) @_ZN7rocksdb3LogENS_12InfoLogLevelEPNS_6LoggerEPKcz(i8 noundef zeroext 5, ptr noundef %29, ptr noundef @.str.218, i64 noundef %31)
  %32 = load ptr, ptr %4, align 8, !tbaa !417
  %33 = getelementptr inbounds nuw %"struct.rocksdb::MutableDBOptions", ptr %5, i32 0, i32 8
  %34 = load i32, ptr %33, align 8, !tbaa !448
  call void (i8, ptr, ptr, ...) @_ZN7rocksdb3LogENS_12InfoLogLevelEPNS_6LoggerEPKcz(i8 noundef zeroext 5, ptr noundef %32, ptr noundef @.str.219, i32 noundef %34)
  %35 = load ptr, ptr %4, align 8, !tbaa !417
  %36 = getelementptr inbounds nuw %"struct.rocksdb::MutableDBOptions", ptr %5, i32 0, i32 9
  %37 = load i32, ptr %36, align 4, !tbaa !449
  call void (i8, ptr, ptr, ...) @_ZN7rocksdb3LogENS_12InfoLogLevelEPNS_6LoggerEPKcz(i8 noundef zeroext 5, ptr noundef %35, ptr noundef @.str.220, i32 noundef %37)
  %38 = load ptr, ptr %4, align 8, !tbaa !417
  %39 = getelementptr inbounds nuw %"struct.rocksdb::MutableDBOptions", ptr %5, i32 0, i32 10
  %40 = load i64, ptr %39, align 8, !tbaa !450
  call void (i8, ptr, ptr, ...) @_ZN7rocksdb3LogENS_12InfoLogLevelEPNS_6LoggerEPKcz(i8 noundef zeroext 5, ptr noundef %38, ptr noundef @.str.221, i64 noundef %40)
  %41 = load ptr, ptr %4, align 8, !tbaa !417
  %42 = getelementptr inbounds nuw %"struct.rocksdb::MutableDBOptions", ptr %5, i32 0, i32 11
  %43 = load i32, ptr %42, align 8, !tbaa !451
  call void (i8, ptr, ptr, ...) @_ZN7rocksdb3LogENS_12InfoLogLevelEPNS_6LoggerEPKcz(i8 noundef zeroext 5, ptr noundef %41, ptr noundef @.str.222, i32 noundef %43)
  %44 = load ptr, ptr %4, align 8, !tbaa !417
  %45 = getelementptr inbounds nuw %"struct.rocksdb::MutableDBOptions", ptr %5, i32 0, i32 12
  %46 = load i64, ptr %45, align 8, !tbaa !452
  call void (i8, ptr, ptr, ...) @_ZN7rocksdb3LogENS_12InfoLogLevelEPNS_6LoggerEPKcz(i8 noundef zeroext 5, ptr noundef %44, ptr noundef @.str.223, i64 noundef %46)
  %47 = load ptr, ptr %4, align 8, !tbaa !417
  %48 = getelementptr inbounds nuw %"struct.rocksdb::MutableDBOptions", ptr %5, i32 0, i32 13
  %49 = load i64, ptr %48, align 8, !tbaa !453
  call void (i8, ptr, ptr, ...) @_ZN7rocksdb3LogENS_12InfoLogLevelEPNS_6LoggerEPKcz(i8 noundef zeroext 5, ptr noundef %47, ptr noundef @.str.224, i64 noundef %49)
  %50 = load ptr, ptr %4, align 8, !tbaa !417
  %51 = getelementptr inbounds nuw %"struct.rocksdb::MutableDBOptions", ptr %5, i32 0, i32 14
  %52 = load i8, ptr %51, align 8, !tbaa !454, !range !218, !noundef !219
  %53 = trunc i8 %52 to i1
  %54 = zext i1 %53 to i32
  call void (i8, ptr, ptr, ...) @_ZN7rocksdb3LogENS_12InfoLogLevelEPNS_6LoggerEPKcz(i8 noundef zeroext 5, ptr noundef %50, ptr noundef @.str.225, i32 noundef %54)
  %55 = load ptr, ptr %4, align 8, !tbaa !417
  %56 = getelementptr inbounds nuw %"struct.rocksdb::MutableDBOptions", ptr %5, i32 0, i32 15
  %57 = load i64, ptr %56, align 8, !tbaa !455
  call void (i8, ptr, ptr, ...) @_ZN7rocksdb3LogENS_12InfoLogLevelEPNS_6LoggerEPKcz(i8 noundef zeroext 5, ptr noundef %55, ptr noundef @.str.226, i64 noundef %57)
  %58 = load ptr, ptr %4, align 8, !tbaa !417
  %59 = getelementptr inbounds nuw %"struct.rocksdb::MutableDBOptions", ptr %5, i32 0, i32 16
  %60 = load i32, ptr %59, align 8, !tbaa !456
  call void (i8, ptr, ptr, ...) @_ZN7rocksdb3LogENS_12InfoLogLevelEPNS_6LoggerEPKcz(i8 noundef zeroext 5, ptr noundef %58, ptr noundef @.str.227, i32 noundef %60)
  %61 = load ptr, ptr %4, align 8, !tbaa !417
  %62 = getelementptr inbounds nuw %"struct.rocksdb::MutableDBOptions", ptr %5, i32 0, i32 17
  %63 = call noundef ptr @_ZNKSt7__cxx1112basic_stringIcSt11char_traitsIcESaIcEE5c_strEv(ptr noundef nonnull align 8 dereferenceable(32) %62) #4
  call void (i8, ptr, ptr, ...) @_ZN7rocksdb3LogENS_12InfoLogLevelEPNS_6LoggerEPKcz(i8 noundef zeroext 5, ptr noundef %61, ptr noundef @.str.228, ptr noundef %63)
  ret void
}