; Function Attrs: mustprogress uwtable
define void @_ZNK7rocksdb16MutableDBOptions4DumpEPNS_6LoggerE(ptr noundef nonnull readonly align 8 captures(none) dereferenceable(144) %0, ptr noundef %1) local_unnamed_addr #6 align 2 {
  %3 = load i32, ptr %0, align 8, !tbaa !343
  tail call void (i8, ptr, ptr, ...) @_ZN7rocksdb3LogENS_12InfoLogLevelEPNS_6LoggerEPKcz(i8 noundef zeroext 5, ptr noundef %1, ptr noundef nonnull @.str.211, i32 noundef %3)
  %4 = getelementptr inbounds nuw i8, ptr %0, i64 4
  %5 = load i32, ptr %4, align 4, !tbaa !344
  tail call void (i8, ptr, ptr, ...) @_ZN7rocksdb3LogENS_12InfoLogLevelEPNS_6LoggerEPKcz(i8 noundef zeroext 5, ptr noundef %1, ptr noundef nonnull @.str.212, i32 noundef %5)
  %6 = getelementptr inbounds nuw i8, ptr %0, i64 8
  %7 = load i32, ptr %6, align 8, !tbaa !345
  tail call void (i8, ptr, ptr, ...) @_ZN7rocksdb3LogENS_12InfoLogLevelEPNS_6LoggerEPKcz(i8 noundef zeroext 5, ptr noundef %1, ptr noundef nonnull @.str.213, i32 noundef %7)
  %8 = getelementptr inbounds nuw i8, ptr %0, i64 12
  %9 = load i8, ptr %8, align 4, !tbaa !346, !range !143, !noundef !144
  %10 = zext nneg i8 %9 to i32
  tail call void (i8, ptr, ptr, ...) @_ZN7rocksdb3LogENS_12InfoLogLevelEPNS_6LoggerEPKcz(i8 noundef zeroext 5, ptr noundef %1, ptr noundef nonnull @.str.214, i32 noundef %10)
  %11 = getelementptr inbounds nuw i8, ptr %0, i64 16
  %12 = load i64, ptr %11, align 8, !tbaa !347
  tail call void (i8, ptr, ptr, ...) @_ZN7rocksdb3LogENS_12InfoLogLevelEPNS_6LoggerEPKcz(i8 noundef zeroext 5, ptr noundef %1, ptr noundef nonnull @.str.215, i64 noundef %12)
  %13 = getelementptr inbounds nuw i8, ptr %0, i64 24
  %14 = load i64, ptr %13, align 8, !tbaa !348
  tail call void (i8, ptr, ptr, ...) @_ZN7rocksdb3LogENS_12InfoLogLevelEPNS_6LoggerEPKcz(i8 noundef zeroext 5, ptr noundef %1, ptr noundef nonnull @.str.216, i64 noundef %14)
  %15 = getelementptr inbounds nuw i8, ptr %0, i64 32
  %16 = load i64, ptr %15, align 8, !tbaa !349
  tail call void (i8, ptr, ptr, ...) @_ZN7rocksdb3LogENS_12InfoLogLevelEPNS_6LoggerEPKcz(i8 noundef zeroext 5, ptr noundef %1, ptr noundef nonnull @.str.217, i64 noundef %16)
  %17 = getelementptr inbounds nuw i8, ptr %0, i64 40
  %18 = load i64, ptr %17, align 8, !tbaa !350
  tail call void (i8, ptr, ptr, ...) @_ZN7rocksdb3LogENS_12InfoLogLevelEPNS_6LoggerEPKcz(i8 noundef zeroext 5, ptr noundef %1, ptr noundef nonnull @.str.218, i64 noundef %18)
  %19 = getelementptr inbounds nuw i8, ptr %0, i64 48
  %20 = load i32, ptr %19, align 8, !tbaa !351
  tail call void (i8, ptr, ptr, ...) @_ZN7rocksdb3LogENS_12InfoLogLevelEPNS_6LoggerEPKcz(i8 noundef zeroext 5, ptr noundef %1, ptr noundef nonnull @.str.219, i32 noundef %20)
  %21 = getelementptr inbounds nuw i8, ptr %0, i64 52
  %22 = load i32, ptr %21, align 4, !tbaa !352
  tail call void (i8, ptr, ptr, ...) @_ZN7rocksdb3LogENS_12InfoLogLevelEPNS_6LoggerEPKcz(i8 noundef zeroext 5, ptr noundef %1, ptr noundef nonnull @.str.220, i32 noundef %22)
  %23 = getelementptr inbounds nuw i8, ptr %0, i64 56
  %24 = load i64, ptr %23, align 8, !tbaa !353
  tail call void (i8, ptr, ptr, ...) @_ZN7rocksdb3LogENS_12InfoLogLevelEPNS_6LoggerEPKcz(i8 noundef zeroext 5, ptr noundef %1, ptr noundef nonnull @.str.221, i64 noundef %24)
  %25 = getelementptr inbounds nuw i8, ptr %0, i64 64
  %26 = load i32, ptr %25, align 8, !tbaa !354
  tail call void (i8, ptr, ptr, ...) @_ZN7rocksdb3LogENS_12InfoLogLevelEPNS_6LoggerEPKcz(i8 noundef zeroext 5, ptr noundef %1, ptr noundef nonnull @.str.222, i32 noundef %26)
  %27 = getelementptr inbounds nuw i8, ptr %0, i64 72
  %28 = load i64, ptr %27, align 8, !tbaa !370
  tail call void (i8, ptr, ptr, ...) @_ZN7rocksdb3LogENS_12InfoLogLevelEPNS_6LoggerEPKcz(i8 noundef zeroext 5, ptr noundef %1, ptr noundef nonnull @.str.223, i64 noundef %28)
  %29 = getelementptr inbounds nuw i8, ptr %0, i64 80
  %30 = load i64, ptr %29, align 8, !tbaa !372
  tail call void (i8, ptr, ptr, ...) @_ZN7rocksdb3LogENS_12InfoLogLevelEPNS_6LoggerEPKcz(i8 noundef zeroext 5, ptr noundef %1, ptr noundef nonnull @.str.224, i64 noundef %30)
  %31 = getelementptr inbounds nuw i8, ptr %0, i64 88
  %32 = load i8, ptr %31, align 8, !tbaa !374, !range !143, !noundef !144
  %33 = zext nneg i8 %32 to i32
  tail call void (i8, ptr, ptr, ...) @_ZN7rocksdb3LogENS_12InfoLogLevelEPNS_6LoggerEPKcz(i8 noundef zeroext 5, ptr noundef %1, ptr noundef nonnull @.str.225, i32 noundef %33)
  %34 = getelementptr inbounds nuw i8, ptr %0, i64 96
  %35 = load i64, ptr %34, align 8, !tbaa !355
  tail call void (i8, ptr, ptr, ...) @_ZN7rocksdb3LogENS_12InfoLogLevelEPNS_6LoggerEPKcz(i8 noundef zeroext 5, ptr noundef %1, ptr noundef nonnull @.str.226, i64 noundef %35)
  %36 = getelementptr inbounds nuw i8, ptr %0, i64 104
  %37 = load i32, ptr %36, align 8, !tbaa !356
  tail call void (i8, ptr, ptr, ...) @_ZN7rocksdb3LogENS_12InfoLogLevelEPNS_6LoggerEPKcz(i8 noundef zeroext 5, ptr noundef %1, ptr noundef nonnull @.str.227, i32 noundef %37)
  %38 = getelementptr inbounds nuw i8, ptr %0, i64 112
  %39 = load ptr, ptr %38, align 8, !tbaa !4
  tail call void (i8, ptr, ptr, ...) @_ZN7rocksdb3LogENS_12InfoLogLevelEPNS_6LoggerEPKcz(i8 noundef zeroext 5, ptr noundef %1, ptr noundef nonnull @.str.228, ptr noundef %39)
  ret void
}